target datalayout = "e-m:e-p270:32:32-p271:32:32-p272:64:64-i64:64-i128:128-f80:128-n8:16:32:64-S128"
target triple = "x86_64-pc-linux-gnu"

%class.QColor = type <{ i32, %"union.QColor::CT", [2 x i8] }>
%"union.QColor::CT" = type { %struct.anon }
%struct.anon = type { i16, i16, i16, i16, i16 }
%class.QString = type { %struct.QArrayDataPointer }
%struct.QArrayDataPointer = type { ptr, ptr, i64 }
%class.QModelIndex = type { i32, i32, i64, ptr }
%class.ColoringRulesDialog = type { %class.GeometryStateDialog, ptr, ptr, ptr, %class.ColoringRulesModel, %class.ColoringRulesDelegate, %class.QMap }
%class.GeometryStateDialog = type { %class.QDialog, %class.QString }
%class.QDialog = type { %class.QWidget }
%class.QWidget = type { %class.QObject, %class.QPaintDevice.base, ptr }
%class.QObject = type { ptr, %class.QScopedPointer }
%class.QScopedPointer = type { ptr }
%class.QPaintDevice.base = type <{ ptr, i16 }>
%class.ColoringRulesModel = type { %class.QAbstractItemModel, ptr, ptr, %class.QColor, %class.QColor, %class.QList }
%class.QAbstractItemModel = type { %class.QObject }
%class.QList = type { %struct.QArrayDataPointer.4 }
%struct.QArrayDataPointer.4 = type { ptr, ptr, i64 }
%class.ColoringRulesDelegate = type { %class.QStyledItemDelegate }
%class.QStyledItemDelegate = type { %class.QAbstractItemDelegate }
%class.QAbstractItemDelegate = type { %class.QObject }
%class.QMap = type { %"class.QtPrivate::QExplicitlySharedDataPointerV2" }
%"class.QtPrivate::QExplicitlySharedDataPointerV2" = type { ptr }
%class.Ui_ColoringRulesDialog = type { ptr, ptr, ptr, ptr, ptr, ptr, ptr, ptr, ptr, ptr, ptr, ptr, ptr, ptr }

; Function Attrs: mustprogress nounwind uwtable
define linkonce_odr noundef i32 @_ZNK11QModelIndex3rowEv(ptr noundef nonnull align 8 dereferenceable(24) %0) #1 comdat align 2 {
  %2 = alloca ptr, align 8
  store ptr %0, ptr %2, align 8
  %3 = load ptr, ptr %2, align 8
  %4 = getelementptr inbounds %class.QModelIndex, ptr %3, i32 0, i32 0
  %5 = load i32, ptr %4, align 8
  ret i32 %5
}

; Function Attrs: mustprogress nounwind uwtable
define linkonce_odr void @_ZN11QModelIndexC2Ev(ptr noundef nonnull align 8 dereferenceable(24) %0) unnamed_addr #1 comdat align 2 {
  %2 = alloca ptr, align 8
  store ptr %0, ptr %2, align 8
  %3 = load ptr, ptr %2, align 8
  %4 = getelementptr inbounds %class.QModelIndex, ptr %3, i32 0, i32 0
  store i32 -1, ptr %4, align 8
  %5 = getelementptr inbounds %class.QModelIndex, ptr %3, i32 0, i32 1
  store i32 -1, ptr %5, align 4
  %6 = getelementptr inbounds %class.QModelIndex, ptr %3, i32 0, i32 2
  store i64 0, ptr %6, align 8
  %7 = getelementptr inbounds %class.QModelIndex, ptr %3, i32 0, i32 3
  store ptr null, ptr %7, align 8
  ret void
}

; Function Attrs: mustprogress nounwind uwtable
define linkonce_odr noundef zeroext i1 @_ZNK11QModelIndex7isValidEv(ptr noundef nonnull align 8 dereferenceable(24) %0) #1 comdat align 2 {
  %2 = alloca ptr, align 8
  store ptr %0, ptr %2, align 8
  %3 = load ptr, ptr %2, align 8
  %4 = getelementptr inbounds %class.QModelIndex, ptr %3, i32 0, i32 0
  %5 = load i32, ptr %4, align 8
  %6 = icmp sge i32 %5, 0
  br i1 %6, label %7, label %15

7:                                                ; preds = %1
  %8 = getelementptr inbounds %class.QModelIndex, ptr %3, i32 0, i32 1
  %9 = load i32, ptr %8, align 4
  %10 = icmp sge i32 %9, 0
  br i1 %10, label %11, label %15

11:                                               ; preds = %7
  %12 = getelementptr inbounds %class.QModelIndex, ptr %3, i32 0, i32 3
  %13 = load ptr, ptr %12, align 8
  %14 = icmp ne ptr %13, null
  br label %15

15:                                               ; preds = %11, %7, %1
  %16 = phi i1 [ false, %7 ], [ false, %1 ], [ %14, %11 ]
  ret i1 %16
}

; Function Attrs: mustprogress uwtable
define void @_ZN19ColoringRulesDialog7addRuleEb(ptr noundef nonnull align 8 dereferenceable(200) %0, i1 noundef zeroext %1) #0 align 2 {
  %3 = alloca ptr, align 8
  %4 = alloca i8, align 1
  %5 = alloca ptr, align 8
  %6 = alloca %class.QModelIndex, align 8
  %7 = alloca %class.QModelIndex, align 8
  %8 = alloca %class.QModelIndex, align 8
  %9 = alloca %class.QModelIndex, align 8
  %10 = alloca %class.QModelIndex, align 8
  %11 = alloca %class.QModelIndex, align 8
  store ptr %0, ptr %3, align 8
  %12 = zext i1 %1 to i8
  store i8 %12, ptr %4, align 1
  %13 = load ptr, ptr %3, align 8
  %14 = getelementptr inbounds %class.ColoringRulesDialog, ptr %13, i32 0, i32 1
  %15 = load ptr, ptr %14, align 8
  %16 = getelementptr inbounds %class.Ui_ColoringRulesDialog, ptr %15, i32 0, i32 1
  %17 = load ptr, ptr %16, align 8
  call void @_ZNK17QAbstractItemView12currentIndexEv(ptr dead_on_unwind writable sret(%class.QModelIndex) align 8 %6, ptr noundef nonnull align 8 dereferenceable(40) %17)
  store ptr %6, ptr %5, align 8
  %18 = load i8, ptr %4, align 1
  %19 = trunc i8 %18 to i1
  br i1 %19, label %20, label %24

20:                                               ; preds = %2
  %21 = load ptr, ptr %5, align 8
  %22 = call noundef zeroext i1 @_ZNK11QModelIndex7isValidEv(ptr noundef nonnull align 8 dereferenceable(24) %21) #17
  br i1 %22, label %24, label %23

23:                                               ; preds = %20
  br label %46

24:                                               ; preds = %20, %2
  %25 = load i8, ptr %4, align 1
  %26 = trunc i8 %25 to i1
  br i1 %26, label %27, label %34

27:                                               ; preds = %24
  %28 = getelementptr inbounds %class.ColoringRulesDialog, ptr %13, i32 0, i32 4
  %29 = getelementptr inbounds %class.ColoringRulesDialog, ptr %13, i32 0, i32 4
  call void @_ZN11QModelIndexC2Ev(ptr noundef nonnull align 8 dereferenceable(24) %8) #17
  call void @_ZNK18ColoringRulesModel5indexEiiRK11QModelIndex(ptr dead_on_unwind writable sret(%class.QModelIndex) align 8 %7, ptr noundef nonnull align 8 dereferenceable(88) %29, i32 noundef 0, i32 noundef 0, ptr noundef nonnull align 8 dereferenceable(24) %8)
  %30 = call noundef i32 @_ZNK11QModelIndex3rowEv(ptr noundef nonnull align 8 dereferenceable(24) %7) #17
  %31 = load ptr, ptr %5, align 8
  %32 = call noundef i32 @_ZNK11QModelIndex3rowEv(ptr noundef nonnull align 8 dereferenceable(24) %31) #17
  %33 = call noundef zeroext i1 @_ZN18ColoringRulesModel7copyRowEii(ptr noundef nonnull align 8 dereferenceable(88) %28, i32 noundef %30, i32 noundef %32)
  br label %40

34:                                               ; preds = %24
  %35 = getelementptr inbounds %class.ColoringRulesDialog, ptr %13, i32 0, i32 4
  call void @_ZN11QModelIndexC2Ev(ptr noundef nonnull align 8 dereferenceable(24) %9) #17
  %36 = call noundef zeroext i1 @_ZN18ColoringRulesModel10insertRowsEiiRK11QModelIndex(ptr noundef nonnull align 8 dereferenceable(88) %35, i32 noundef 0, i32 noundef 1, ptr noundef nonnull align 8 dereferenceable(24) %9)
  %37 = xor i1 %36, true
  br i1 %37, label %38, label %39

38:                                               ; preds = %34
  br label %46

39:                                               ; preds = %34
  br label %40

40:                                               ; preds = %39, %27
  %41 = getelementptr inbounds %class.ColoringRulesDialog, ptr %13, i32 0, i32 1
  %42 = load ptr, ptr %41, align 8
  %43 = getelementptr inbounds %class.Ui_ColoringRulesDialog, ptr %42, i32 0, i32 1
  %44 = load ptr, ptr %43, align 8
  %45 = getelementptr inbounds %class.ColoringRulesDialog, ptr %13, i32 0, i32 4
  call void @_ZN11QModelIndexC2Ev(ptr noundef nonnull align 8 dereferenceable(24) %11) #17
  call void @_ZNK18ColoringRulesModel5indexEiiRK11QModelIndex(ptr dead_on_unwind writable sret(%class.QModelIndex) align 8 %10, ptr noundef nonnull align 8 dereferenceable(88) %45, i32 noundef 0, i32 noundef 1, ptr noundef nonnull align 8 dereferenceable(24) %11)
  call void @_ZN17QAbstractItemView4editERK11QModelIndex(ptr noundef nonnull align 8 dereferenceable(40) %44, ptr noundef nonnull align 8 dereferenceable(24) %10)
  br label %46

46:                                               ; preds = %40, %38, %23
  ret void
}