; Function Attrs: mustprogress uwtable
define void @_ZN19ColoringRulesDialog7addRuleEb(ptr noundef nonnull align 8 dereferenceable(200) %0, i1 noundef zeroext %1) local_unnamed_addr #0 align 2 {
  %3 = alloca %class.QModelIndex, align 8
  %4 = alloca %class.QModelIndex, align 8
  %5 = alloca %class.QModelIndex, align 8
  %6 = alloca %class.QModelIndex, align 8
  %7 = alloca %class.QModelIndex, align 8
  %8 = alloca %class.QModelIndex, align 8
  %9 = getelementptr inbounds i8, ptr %0, i64 64
  %10 = load ptr, ptr %9, align 8
  %11 = getelementptr inbounds i8, ptr %10, i64 8
  %12 = load ptr, ptr %11, align 8
  call void @_ZNK17QAbstractItemView12currentIndexEv(ptr dead_on_unwind nonnull writable sret(%class.QModelIndex) align 8 %3, ptr noundef nonnull align 8 dereferenceable(40) %12)
  br i1 %1, label %13, label %.critedge

13:                                               ; preds = %2
  %14 = load i32, ptr %3, align 8
  %15 = icmp sgt i32 %14, -1
  %16 = getelementptr inbounds i8, ptr %3, i64 4
  %17 = load i32, ptr %16, align 4
  %18 = icmp sgt i32 %17, -1
  %or.cond.i = select i1 %15, i1 %18, i1 false
  %19 = getelementptr inbounds i8, ptr %3, i64 16
  %20 = load ptr, ptr %19, align 8
  %21 = icmp ne ptr %20, null
  %or.cond = select i1 %or.cond.i, i1 %21, i1 false
  br i1 %or.cond, label %22, label %_ZNK11QModelIndex7isValidEv.exit.thread

22:                                               ; preds = %13
  %23 = getelementptr inbounds i8, ptr %0, i64 88
  store i32 -1, ptr %5, align 8
  %24 = getelementptr inbounds i8, ptr %5, i64 4
  store i32 -1, ptr %24, align 4
  %25 = getelementptr inbounds i8, ptr %5, i64 8
  call void @llvm.memset.p0.i64(ptr noundef nonnull align 8 dereferenceable(16) %25, i8 0, i64 16, i1 false)
  call void @_ZNK18ColoringRulesModel5indexEiiRK11QModelIndex(ptr dead_on_unwind nonnull writable sret(%class.QModelIndex) align 8 %4, ptr noundef nonnull align 8 dereferenceable(88) %23, i32 noundef 0, i32 noundef 0, ptr noundef nonnull align 8 dereferenceable(24) %5)
  %26 = load i32, ptr %4, align 8
  %27 = load i32, ptr %3, align 8
  %28 = call noundef zeroext i1 @_ZN18ColoringRulesModel7copyRowEii(ptr noundef nonnull align 8 dereferenceable(88) %23, i32 noundef %26, i32 noundef %27)
  br label %33

.critedge:                                        ; preds = %2
  %29 = getelementptr inbounds i8, ptr %0, i64 88
  store i32 -1, ptr %6, align 8
  %30 = getelementptr inbounds i8, ptr %6, i64 4
  store i32 -1, ptr %30, align 4
  %31 = getelementptr inbounds i8, ptr %6, i64 8
  call void @llvm.memset.p0.i64(ptr noundef nonnull align 8 dereferenceable(16) %31, i8 0, i64 16, i1 false)
  %32 = call noundef zeroext i1 @_ZN18ColoringRulesModel10insertRowsEiiRK11QModelIndex(ptr noundef nonnull align 8 dereferenceable(88) %29, i32 noundef 0, i32 noundef 1, ptr noundef nonnull align 8 dereferenceable(24) %6)
  br i1 %32, label %33, label %_ZNK11QModelIndex7isValidEv.exit.thread

33:                                               ; preds = %.critedge, %22
  %34 = load ptr, ptr %9, align 8
  %35 = getelementptr inbounds i8, ptr %34, i64 8
  %36 = load ptr, ptr %35, align 8
  %37 = getelementptr inbounds i8, ptr %0, i64 88
  store i32 -1, ptr %8, align 8
  %38 = getelementptr inbounds i8, ptr %8, i64 4
  store i32 -1, ptr %38, align 4
  %39 = getelementptr inbounds i8, ptr %8, i64 8
  call void @llvm.memset.p0.i64(ptr noundef nonnull align 8 dereferenceable(16) %39, i8 0, i64 16, i1 false)
  call void @_ZNK18ColoringRulesModel5indexEiiRK11QModelIndex(ptr dead_on_unwind nonnull writable sret(%class.QModelIndex) align 8 %7, ptr noundef nonnull align 8 dereferenceable(88) %37, i32 noundef 0, i32 noundef 1, ptr noundef nonnull align 8 dereferenceable(24) %8)
  call void @_ZN17QAbstractItemView4editERK11QModelIndex(ptr noundef nonnull align 8 dereferenceable(40) %36, ptr noundef nonnull align 8 dereferenceable(24) %7)
  br label %_ZNK11QModelIndex7isValidEv.exit.thread

_ZNK11QModelIndex7isValidEv.exit.thread:          ; preds = %13, %.critedge, %33
  ret void
}